ASxxxx Linker V03.00 + NoICE + sdld,  page 1.
Hexadecimal  [32-Bits]

Area                                    Addr        Size        Decimal Bytes (Attributes)
--------------------------------        ----        ----        ------- ----- ------------
.  .ABS.                            00000000    00000000 =           0. bytes (ABS,CON)

      Value  Global                              Global Defined In Module
      -----  --------------------------------   ------------------------
     00000000  .__.ABS.                           cpct_video
     00000000  l__CABS                         
     00000000  l__DABS                         
     00000000  l__GSFINAL                      
     00000000  l__GSINIT                       
     00000000  l__HOME                         
     00000000  l__INITIALIZED                  
     00000000  l__INITIALIZER                  
     00000000  s__CABS                         
     00000000  s__DABS                         
     000000C5  l__DATA                         
     000006E5  l__CODE                         
     00004000  s__CODE                         
     000046E5  s__DATA                         
     000047AA  s__GSFINAL                      
     000047AA  s__GSINIT                       
     000047AA  s__HOME                         
     000047AA  s__INITIALIZED                  
     000047AA  s__INITIALIZER                  

ASxxxx Linker V03.00 + NoICE + sdld,  page 2.
Hexadecimal  [32-Bits]

Area                                    Addr        Size        Decimal Bytes (Attributes)
--------------------------------        ----        ----        ------- ----- ------------
_CODE                               00004000    000006E5 =        1765. bytes (REL,CON)

      Value  Global                              Global Defined In Module
      -----  --------------------------------   ------------------------
     00004000  _spr_enemy1_0                      enemy1
     00004064  _spr_enemy1_1                      enemy1
     000040C8  _spr_playership_0                  playership
     000040F8  _spr_playership_1                  playership
     00004128  _spr_mothership                    mothership
     0000426C  _main_palette                      main_palette
     0000427C  _main                              Main
     00004285  sys_ai_behaviour_mothership        Manager_IA
     0000429B  sys_ai_behaviour_left_right        Manager_IA
     000042E5  _sys_ai_update                     Manager_IA
     00004344  _sys_physics_update                Control_physics
     0000438C  _sys_render_update                 Render_Stars
     00004396  _sys_render_init                   Render_Stars
     000043AB  _man_entity_init                   Entity_Manager
     000043C6  _man_entity_create                 Entity_Manager
     000043DF  _man_entity_set_for_destruction    Entity_Manager
     0000440A  _man_entity_for_all                Entity_Manager
     00004444  _man_entity_for_all_matching       Entity_Manager
     00004491  _man_entity_update                 Entity_Manager
     000044B1  _man_entity_free_space             Entity_Manager
     000044CD  man_game_create_template_entity    Game_Manager
     000044DB  man_game_create_enemy              Game_Manager
     0000450B  man_game_init                      Game_Manager
     0000454D  man_game_play                      Game_Manager
     00004561  cpct_setPalette_asm                cpct_video
     00004574  _cpct_scanKeyboard_f               cpct_keyboard
     00004574  cpct_scanKeyboard_f_asm            cpct_keyboard
     000045DE  _cpct_isKeyPressed                 cpct_keyboard
     000045DE  cpct_isKeyPressed_asm              cpct_keyboard
     000045EA  cpct_setPALColour_asm              cpct_video
     000045F4  cpct_drawSprite_asm                cpct_sprites
     00004694  _cpct_keyboardStatusBuffer         cpct_keyboard
     0000469E  cpct_waitHalts_asm                 cpct_memutils
     000046A2  _cpct_waitVSYNC                    cpct_video
     000046A2  cpct_waitVSYNC_asm                 cpct_video
     000046AA  cpct_setVideoMode_asm              cpct_video
     000046B7  cpct_memset_asm                    cpct_memutils
     000046BF  cpct_memcpy_asm                    cpct_memutils
     000046C2  _cpct_disableFirmware              cpct_firmware
     000046C2  _cpct_removeInterruptHandler       cpct_firmware
     000046C2  cpct_disableFirmware_asm           cpct_firmware
     000046C2  cpct_removeInterruptHandler_asm    cpct_firmware
     000046D2  _cpct_mode_rom_status              cpct_firmware
     000046D3  cpct_getScreenPtr_asm              cpct_video

ASxxxx Linker V03.00 + NoICE + sdld,  page 3.
Hexadecimal  [32-Bits]

Area                                    Addr        Size        Decimal Bytes (Attributes)
--------------------------------        ----        ----        ------- ----- ------------
_DATA                               000046E5    000000C5 =         197. bytes (REL,CON)

      Value  Global                              Global Defined In Module
      -----  --------------------------------   ------------------------
     000046E5  _m_palette                         Render_Stars
     000046F5  m_entities                         Entity_Manager
     0000477A  m_next_free_entity                 Entity_Manager
     0000477C  m_reserved_entites                 Entity_Manager
     0000477D  mothership_template_e              Game_Manager
     00004788  enemy1_template_e                  Game_Manager
     00004793  playership_template1_e             Game_Manager
     0000479E  playership_template0_e             Game_Manager
     000047A9  m_enemy_on_lane                    Game_Manager
ASxxxx Linker V03.00 + NoICE + sdld,  page 4.

Files Linked                              [ module(s) ]

obj/sprites/enemy1.rel                    [ enemy1 ]
obj/sprites/playership.rel                [ playership ]
obj/sprites/mothership.rel                [ mothership ]
obj/sprites/main_palette.rel              [ main_palette ]
obj/main.rel                              [ Main ]
obj/sys/ia.h.rel                          [  ]
obj/sys/ia.rel                            [ Manager_IA ]
obj/sys/physics.h.rel                     [  ]
obj/sys/physics.rel                       [ Control_physics ]
obj/sys/render.h.rel                      [  ]
obj/sys/render.rel                        [ Render_Stars ]
obj/man/entity.h.rel                      [  ]
obj/man/entity.rel                        [ Entity_Manager ]
obj/man/game.h.rel                        [  ]
obj/man/game.rel                          [ Game_Manager ]


Libraries Linked                          [ object file ]

/home/cpc/cpctelera/cpctelera/cpctelera.lib
                                          [ cpct_setPalette_asmbindings.rel ]
/home/cpc/cpctelera/cpctelera/cpctelera.lib
                                          [ cpct_scanKeyboard_f.rel ]
/home/cpc/cpctelera/cpctelera/cpctelera.lib
                                          [ cpct_isKeyPressed.rel ]
/home/cpc/cpctelera/cpctelera/cpctelera.lib
                                          [ cpct_setPALColour_asmbindings.re ]
/home/cpc/cpctelera/cpctelera/cpctelera.lib
                                          [ cpct_drawSprite_asmbindings.rel ]
/home/cpc/cpctelera/cpctelera/cpctelera.lib
                                          [ keyboard.rel ]
/home/cpc/cpctelera/cpctelera/cpctelera.lib
                                          [ cpct_waitHalts_asmbindings.rel ]
/home/cpc/cpctelera/cpctelera/cpctelera.lib
                                          [ cpct_waitVSYNC.rel ]
/home/cpc/cpctelera/cpctelera/cpctelera.lib
                                          [ cpct_setVideoMode_asmbindings.re ]
/home/cpc/cpctelera/cpctelera/cpctelera.lib
                                          [ cpct_memset_asmbinding.rel ]
/home/cpc/cpctelera/cpctelera/cpctelera.lib
                                          [ cpct_memcpy_asmbindings.rel ]
/home/cpc/cpctelera/cpctelera/cpctelera.lib
                                          [ cpct_removeInterruptHandler.rel ]
/home/cpc/cpctelera/cpctelera/cpctelera.lib
                                          [ cpc_mode_rom_status.rel ]
/home/cpc/cpctelera/cpctelera/cpctelera.lib
                                          [ cpct_getScreenPtr_asmbindings.re ]

ASxxxx Linker V03.00 + NoICE + sdld,  page 5.

User Base Address Definitions

_CODE = 0x4000
_DATA = 0x0000

